; Function Attrs: nounwind uwtable
define dso_local i32 @Curl_conn_ev_data_setup(ptr noundef %0) local_unnamed_addr #1 {
  %2 = getelementptr inbounds nuw i8, ptr %0, i64 24
  %3 = load ptr, ptr %2, align 8, !tbaa !56
  %4 = getelementptr inbounds nuw i8, ptr %3, i64 608
  br label %.split.i

.split.i:                                         ; preds = %Curl_conn_cf_cntrl.exit.thread.i, %1
  %5 = phi i1 [ false, %Curl_conn_cf_cntrl.exit.thread.i ], [ true, %1 ]
  %.05.i = phi i64 [ 1, %Curl_conn_cf_cntrl.exit.thread.i ], [ 0, %1 ]
  %6 = getelementptr inbounds nuw [2 x ptr], ptr %4, i64 0, i64 %.05.i
  %7 = load ptr, ptr %6, align 8, !tbaa !51
  %.not1517.i.i = icmp eq ptr %7, null
  br i1 %.not1517.i.i, label %Curl_conn_cf_cntrl.exit.thread.i, label %.lr.ph.split.i.i

.lr.ph.split.i.i:                                 ; preds = %.split.i, %15
  %.01218.i.i = phi ptr [ %17, %15 ], [ %7, %.split.i ]
  %8 = load ptr, ptr %.01218.i.i, align 8, !tbaa !15
  %9 = getelementptr inbounds nuw i8, ptr %8, i64 88
  %10 = load ptr, ptr %9, align 8, !tbaa !129
  %11 = icmp eq ptr %10, @Curl_cf_def_cntrl
  br i1 %11, label %15, label %12

12:                                               ; preds = %.lr.ph.split.i.i
  %13 = tail call i32 %10(ptr noundef nonnull %.01218.i.i, ptr noundef %0, i32 noundef 4, i32 noundef 0, ptr noundef null) #12
  %14 = icmp eq i32 %13, 0
  br i1 %14, label %15, label %cf_cntrl_all.exit

15:                                               ; preds = %12, %.lr.ph.split.i.i
  %16 = getelementptr inbounds nuw i8, ptr %.01218.i.i, i64 8
  %17 = load ptr, ptr %16, align 8, !tbaa !8
  %.not15.i.i = icmp eq ptr %17, null
  br i1 %.not15.i.i, label %Curl_conn_cf_cntrl.exit.thread.i, label %.lr.ph.split.i.i, !llvm.loop !130

Curl_conn_cf_cntrl.exit.thread.i:                 ; preds = %15, %.split.i
  br i1 %5, label %.split.i, label %cf_cntrl_all.exit, !llvm.loop !131

cf_cntrl_all.exit:                                ; preds = %Curl_conn_cf_cntrl.exit.thread.i, %12
  %.us-phi.i = phi i32 [ %13, %12 ], [ 0, %Curl_conn_cf_cntrl.exit.thread.i ]
  ret i32 %.us-phi.i
}